; Function Attrs: mustprogress nounwind uwtable
define hidden void @_ZN2cv13wechat_qrcode9ImgSourceD0Ev(ptr noundef nonnull align 8 dereferenceable(80) initializes((0, 8), (24, 32)) %0) unnamed_addr #4 align 2 personality ptr @__gxx_personality_v0 {
  store ptr getelementptr inbounds nuw inrange(-16, 72) (i8, ptr @_ZTVN2cv13wechat_qrcode9ImgSourceE, i64 16), ptr %0, align 8
  %2 = getelementptr inbounds nuw i8, ptr %0, i64 56
  %3 = load ptr, ptr %2, align 8
  %.not.i = icmp eq ptr %3, null
  br i1 %.not.i, label %5, label %4

4:                                                ; preds = %1
  tail call void @_ZdaPv(ptr noundef nonnull %3) #16
  br label %5

5:                                                ; preds = %4, %1
  %6 = getelementptr inbounds nuw i8, ptr %0, i64 24
  store ptr getelementptr inbounds nuw inrange(-16, 16) (i8, ptr @_ZTVN5zxing8ArrayRefIcEE, i64 16), ptr %6, align 8
  %7 = getelementptr inbounds nuw i8, ptr %0, i64 40
  %8 = load ptr, ptr %7, align 8
  %.not.i.i = icmp eq ptr %8, null
  br i1 %.not.i.i, label %_ZN2cv13wechat_qrcode9ImgSourceD2Ev.exit, label %9

9:                                                ; preds = %5
  %10 = getelementptr inbounds nuw i8, ptr %8, i64 8
  %11 = load i32, ptr %10, align 8
  %12 = add i32 %11, -1
  store i32 %12, ptr %10, align 8
  %13 = icmp eq i32 %12, 0
  br i1 %13, label %14, label %_ZN2cv13wechat_qrcode9ImgSourceD2Ev.exit

14:                                               ; preds = %9
  store i32 -559026175, ptr %10, align 8
  %15 = load ptr, ptr %8, align 8
  %16 = getelementptr inbounds nuw i8, ptr %15, i64 8
  %17 = load ptr, ptr %16, align 8
  tail call void %17(ptr noundef nonnull align 8 dereferenceable(12) %8) #15
  br label %_ZN2cv13wechat_qrcode9ImgSourceD2Ev.exit

_ZN2cv13wechat_qrcode9ImgSourceD2Ev.exit:         ; preds = %5, %9, %14
  store ptr null, ptr %7, align 8
  tail call void @_ZN5zxing15LuminanceSourceD2Ev(ptr noundef nonnull align 8 dereferenceable(80) %0) #15
  tail call void @_ZdlPv(ptr noundef nonnull %0) #16
  ret void
}